target datalayout = "e-m:e-p270:32:32-p271:32:32-p272:64:64-i64:64-f80:128-n8:16:32:64-S128"
target triple = "x86_64-pc-linux-gnu"

%struct.distant = type { i32, i32, float }

@.str = private unnamed_addr constant [3 x i8] c"%d\00", align 1
@.str.1 = private unnamed_addr constant [28 x i8] c"(%d,%d,%d)-(%d,%d,%d)=%.2f\0A\00", align 1

; Function Attrs: noinline nounwind uwtable
define dso_local float @dist(i32* %0, i32* %1) #0 {
  %3 = alloca i32*, align 8
  %4 = alloca i32*, align 8
  %5 = alloca float, align 4
  store i32* %0, i32** %3, align 8
  store i32* %1, i32** %4, align 8
  %6 = load i32*, i32** %3, align 8
  %7 = getelementptr inbounds i32, i32* %6, i64 0
  %8 = load i32, i32* %7, align 4
  %9 = load i32*, i32** %4, align 8
  %10 = getelementptr inbounds i32, i32* %9, i64 0
  %11 = load i32, i32* %10, align 4
  %12 = sub nsw i32 %8, %11
  %13 = load i32*, i32** %3, align 8
  %14 = getelementptr inbounds i32, i32* %13, i64 0
  %15 = load i32, i32* %14, align 4
  %16 = load i32*, i32** %4, align 8
  %17 = getelementptr inbounds i32, i32* %16, i64 0
  %18 = load i32, i32* %17, align 4
  %19 = sub nsw i32 %15, %18
  %20 = mul nsw i32 %12, %19
  %21 = load i32*, i32** %3, align 8
  %22 = getelementptr inbounds i32, i32* %21, i64 1
  %23 = load i32, i32* %22, align 4
  %24 = load i32*, i32** %4, align 8
  %25 = getelementptr inbounds i32, i32* %24, i64 1
  %26 = load i32, i32* %25, align 4
  %27 = sub nsw i32 %23, %26
  %28 = load i32*, i32** %3, align 8
  %29 = getelementptr inbounds i32, i32* %28, i64 1
  %30 = load i32, i32* %29, align 4
  %31 = load i32*, i32** %4, align 8
  %32 = getelementptr inbounds i32, i32* %31, i64 1
  %33 = load i32, i32* %32, align 4
  %34 = sub nsw i32 %30, %33
  %35 = mul nsw i32 %27, %34
  %36 = add nsw i32 %20, %35
  %37 = load i32*, i32** %3, align 8
  %38 = getelementptr inbounds i32, i32* %37, i64 2
  %39 = load i32, i32* %38, align 4
  %40 = load i32*, i32** %4, align 8
  %41 = getelementptr inbounds i32, i32* %40, i64 2
  %42 = load i32, i32* %41, align 4
  %43 = sub nsw i32 %39, %42
  %44 = load i32*, i32** %3, align 8
  %45 = getelementptr inbounds i32, i32* %44, i64 2
  %46 = load i32, i32* %45, align 4
  %47 = load i32*, i32** %4, align 8
  %48 = getelementptr inbounds i32, i32* %47, i64 2
  %49 = load i32, i32* %48, align 4
  %50 = sub nsw i32 %46, %49
  %51 = mul nsw i32 %43, %50
  %52 = add nsw i32 %36, %51
  %53 = sitofp i32 %52 to float
  store float %53, float* %5, align 4
  %54 = load float, float* %5, align 4
  %55 = fpext float %54 to double
  %56 = call double @sqrt(double %55) #4
  %57 = fptrunc double %56 to float
  store float %57, float* %5, align 4
  %58 = load float, float* %5, align 4
  ret float %58
}

; Function Attrs: noinline nounwind uwtable
define dso_local i32 @main() #0 {
  %1 = alloca i32, align 4
  %2 = alloca i32, align 4
  %3 = alloca [10 x [3 x i32]], align 16
  %4 = alloca [50 x %struct.distant], align 16
  %5 = alloca %struct.distant, align 4
  %6 = alloca i32, align 4
  %7 = alloca i32, align 4
  %8 = alloca i32, align 4
  store i32 0, i32* %1, align 4
  %9 = call i32 (i8*, ...) @__isoc99_scanf(i8* getelementptr inbounds ([3 x i8], [3 x i8]* @.str, i64 0, i64 0), i32* %2)
  store i32 0, i32* %6, align 4
  br label %10

10:                                               ; preds = %30, %0
  %11 = load i32, i32* %6, align 4
  %12 = load i32, i32* %2, align 4
  %13 = icmp slt i32 %11, %12
  br i1 %13, label %14, label %33

14:                                               ; preds = %10
  store i32 0, i32* %7, align 4
  br label %15

15:                                               ; preds = %26, %14
  %16 = load i32, i32* %7, align 4
  %17 = icmp slt i32 %16, 3
  br i1 %17, label %18, label %29

18:                                               ; preds = %15
  %19 = load i32, i32* %6, align 4
  %20 = sext i32 %19 to i64
  %21 = getelementptr inbounds [10 x [3 x i32]], [10 x [3 x i32]]* %3, i64 0, i64 %20
  %22 = load i32, i32* %7, align 4
  %23 = sext i32 %22 to i64
  %24 = getelementptr inbounds [3 x i32], [3 x i32]* %21, i64 0, i64 %23
  %25 = call i32 (i8*, ...) @__isoc99_scanf(i8* getelementptr inbounds ([3 x i8], [3 x i8]* @.str, i64 0, i64 0), i32* %24)
  br label %26

26:                                               ; preds = %18
  %27 = load i32, i32* %7, align 4
  %28 = add nsw i32 %27, 1
  store i32 %28, i32* %7, align 4
  br label %15

29:                                               ; preds = %15
  br label %30

30:                                               ; preds = %29
  %31 = load i32, i32* %6, align 4
  %32 = add nsw i32 %31, 1
  store i32 %32, i32* %6, align 4
  br label %10

33:                                               ; preds = %10
  store i32 0, i32* %6, align 4
  store i32 0, i32* %8, align 4
  br label %34

34:                                               ; preds = %75, %33
  %35 = load i32, i32* %6, align 4
  %36 = load i32, i32* %2, align 4
  %37 = icmp slt i32 %35, %36
  br i1 %37, label %38, label %78

38:                                               ; preds = %34
  %39 = load i32, i32* %6, align 4
  %40 = add nsw i32 %39, 1
  store i32 %40, i32* %7, align 4
  br label %41

41:                                               ; preds = %69, %38
  %42 = load i32, i32* %7, align 4
  %43 = load i32, i32* %2, align 4
  %44 = icmp slt i32 %42, %43
  br i1 %44, label %45, label %74

45:                                               ; preds = %41
  %46 = load i32, i32* %6, align 4
  %47 = load i32, i32* %8, align 4
  %48 = sext i32 %47 to i64
  %49 = getelementptr inbounds [50 x %struct.distant], [50 x %struct.distant]* %4, i64 0, i64 %48
  %50 = getelementptr inbounds %struct.distant, %struct.distant* %49, i32 0, i32 0
  store i32 %46, i32* %50, align 4
  %51 = load i32, i32* %7, align 4
  %52 = load i32, i32* %8, align 4
  %53 = sext i32 %52 to i64
  %54 = getelementptr inbounds [50 x %struct.distant], [50 x %struct.distant]* %4, i64 0, i64 %53
  %55 = getelementptr inbounds %struct.distant, %struct.distant* %54, i32 0, i32 1
  store i32 %51, i32* %55, align 4
  %56 = load i32, i32* %6, align 4
  %57 = sext i32 %56 to i64
  %58 = getelementptr inbounds [10 x [3 x i32]], [10 x [3 x i32]]* %3, i64 0, i64 %57
  %59 = getelementptr inbounds [3 x i32], [3 x i32]* %58, i64 0, i64 0
  %60 = load i32, i32* %7, align 4
  %61 = sext i32 %60 to i64
  %62 = getelementptr inbounds [10 x [3 x i32]], [10 x [3 x i32]]* %3, i64 0, i64 %61
  %63 = getelementptr inbounds [3 x i32], [3 x i32]* %62, i64 0, i64 0
  %64 = call float @dist(i32* %59, i32* %63)
  %65 = load i32, i32* %8, align 4
  %66 = sext i32 %65 to i64
  %67 = getelementptr inbounds [50 x %struct.distant], [50 x %struct.distant]* %4, i64 0, i64 %66
  %68 = getelementptr inbounds %struct.distant, %struct.distant* %67, i32 0, i32 2
  store float %64, float* %68, align 4
  br label %69

69:                                               ; preds = %45
  %70 = load i32, i32* %7, align 4
  %71 = add nsw i32 %70, 1
  store i32 %71, i32* %7, align 4
  %72 = load i32, i32* %8, align 4
  %73 = add nsw i32 %72, 1
  store i32 %73, i32* %8, align 4
  br label %41

74:                                               ; preds = %41
  br label %75

75:                                               ; preds = %74
  %76 = load i32, i32* %6, align 4
  %77 = add nsw i32 %76, 1
  store i32 %77, i32* %6, align 4
  br label %34

78:                                               ; preds = %34
  store i32 1, i32* %6, align 4
  br label %79

79:                                               ; preds = %129, %78
  %80 = load i32, i32* %6, align 4
  %81 = load i32, i32* %8, align 4
  %82 = icmp slt i32 %80, %81
  br i1 %82, label %83, label %132

83:                                               ; preds = %79
  store i32 0, i32* %7, align 4
  br label %84

84:                                               ; preds = %125, %83
  %85 = load i32, i32* %7, align 4
  %86 = load i32, i32* %8, align 4
  %87 = load i32, i32* %6, align 4
  %88 = sub nsw i32 %86, %87
  %89 = icmp slt i32 %85, %88
  br i1 %89, label %90, label %128

90:                                               ; preds = %84
  %91 = load i32, i32* %7, align 4
  %92 = sext i32 %91 to i64
  %93 = getelementptr inbounds [50 x %struct.distant], [50 x %struct.distant]* %4, i64 0, i64 %92
  %94 = getelementptr inbounds %struct.distant, %struct.distant* %93, i32 0, i32 2
  %95 = load float, float* %94, align 4
  %96 = load i32, i32* %7, align 4
  %97 = add nsw i32 %96, 1
  %98 = sext i32 %97 to i64
  %99 = getelementptr inbounds [50 x %struct.distant], [50 x %struct.distant]* %4, i64 0, i64 %98
  %100 = getelementptr inbounds %struct.distant, %struct.distant* %99, i32 0, i32 2
  %101 = load float, float* %100, align 4
  %102 = fcmp olt float %95, %101
  br i1 %102, label %103, label %124

103:                                              ; preds = %90
  %104 = load i32, i32* %7, align 4
  %105 = sext i32 %104 to i64
  %106 = getelementptr inbounds [50 x %struct.distant], [50 x %struct.distant]* %4, i64 0, i64 %105
  %107 = bitcast %struct.distant* %5 to i8*
  %108 = bitcast %struct.distant* %106 to i8*
  call void @llvm.memcpy.p0i8.p0i8.i64(i8* align 4 %107, i8* align 4 %108, i64 12, i1 false)
  %109 = load i32, i32* %7, align 4
  %110 = sext i32 %109 to i64
  %111 = getelementptr inbounds [50 x %struct.distant], [50 x %struct.distant]* %4, i64 0, i64 %110
  %112 = load i32, i32* %7, align 4
  %113 = add nsw i32 %112, 1
  %114 = sext i32 %113 to i64
  %115 = getelementptr inbounds [50 x %struct.distant], [50 x %struct.distant]* %4, i64 0, i64 %114
  %116 = bitcast %struct.distant* %111 to i8*
  %117 = bitcast %struct.distant* %115 to i8*
  call void @llvm.memcpy.p0i8.p0i8.i64(i8* align 4 %116, i8* align 4 %117, i64 12, i1 false)
  %118 = load i32, i32* %7, align 4
  %119 = add nsw i32 %118, 1
  %120 = sext i32 %119 to i64
  %121 = getelementptr inbounds [50 x %struct.distant], [50 x %struct.distant]* %4, i64 0, i64 %120
  %122 = bitcast %struct.distant* %121 to i8*
  %123 = bitcast %struct.distant* %5 to i8*
  call void @llvm.memcpy.p0i8.p0i8.i64(i8* align 4 %122, i8* align 4 %123, i64 12, i1 false)
  br label %124

124:                                              ; preds = %103, %90
  br label %125

125:                                              ; preds = %124
  %126 = load i32, i32* %7, align 4
  %127 = add nsw i32 %126, 1
  store i32 %127, i32* %7, align 4
  br label %84

128:                                              ; preds = %84
  br label %129

129:                                              ; preds = %128
  %130 = load i32, i32* %6, align 4
  %131 = add nsw i32 %130, 1
  store i32 %131, i32* %6, align 4
  br label %79

132:                                              ; preds = %79
  store i32 0, i32* %6, align 4
  br label %133

133:                                              ; preds = %199, %132
  %134 = load i32, i32* %6, align 4
  %135 = load i32, i32* %8, align 4
  %136 = icmp slt i32 %134, %135
  br i1 %136, label %137, label %202

137:                                              ; preds = %133
  %138 = load i32, i32* %6, align 4
  %139 = sext i32 %138 to i64
  %140 = getelementptr inbounds [50 x %struct.distant], [50 x %struct.distant]* %4, i64 0, i64 %139
  %141 = getelementptr inbounds %struct.distant, %struct.distant* %140, i32 0, i32 0
  %142 = load i32, i32* %141, align 4
  %143 = sext i32 %142 to i64
  %144 = getelementptr inbounds [10 x [3 x i32]], [10 x [3 x i32]]* %3, i64 0, i64 %143
  %145 = getelementptr inbounds [3 x i32], [3 x i32]* %144, i64 0, i64 0
  %146 = load i32, i32* %145, align 4
  %147 = load i32, i32* %6, align 4
  %148 = sext i32 %147 to i64
  %149 = getelementptr inbounds [50 x %struct.distant], [50 x %struct.distant]* %4, i64 0, i64 %148
  %150 = getelementptr inbounds %struct.distant, %struct.distant* %149, i32 0, i32 0
  %151 = load i32, i32* %150, align 4
  %152 = sext i32 %151 to i64
  %153 = getelementptr inbounds [10 x [3 x i32]], [10 x [3 x i32]]* %3, i64 0, i64 %152
  %154 = getelementptr inbounds [3 x i32], [3 x i32]* %153, i64 0, i64 1
  %155 = load i32, i32* %154, align 4
  %156 = load i32, i32* %6, align 4
  %157 = sext i32 %156 to i64
  %158 = getelementptr inbounds [50 x %struct.distant], [50 x %struct.distant]* %4, i64 0, i64 %157
  %159 = getelementptr inbounds %struct.distant, %struct.distant* %158, i32 0, i32 0
  %160 = load i32, i32* %159, align 4
  %161 = sext i32 %160 to i64
  %162 = getelementptr inbounds [10 x [3 x i32]], [10 x [3 x i32]]* %3, i64 0, i64 %161
  %163 = getelementptr inbounds [3 x i32], [3 x i32]* %162, i64 0, i64 2
  %164 = load i32, i32* %163, align 4
  %165 = load i32, i32* %6, align 4
  %166 = sext i32 %165 to i64
  %167 = getelementptr inbounds [50 x %struct.distant], [50 x %struct.distant]* %4, i64 0, i64 %166
  %168 = getelementptr inbounds %struct.distant, %struct.distant* %167, i32 0, i32 1
  %169 = load i32, i32* %168, align 4
  %170 = sext i32 %169 to i64
  %171 = getelementptr inbounds [10 x [3 x i32]], [10 x [3 x i32]]* %3, i64 0, i64 %170
  %172 = getelementptr inbounds [3 x i32], [3 x i32]* %171, i64 0, i64 0
  %173 = load i32, i32* %172, align 4
  %174 = load i32, i32* %6, align 4
  %175 = sext i32 %174 to i64
  %176 = getelementptr inbounds [50 x %struct.distant], [50 x %struct.distant]* %4, i64 0, i64 %175
  %177 = getelementptr inbounds %struct.distant, %struct.distant* %176, i32 0, i32 1
  %178 = load i32, i32* %177, align 4
  %179 = sext i32 %178 to i64
  %180 = getelementptr inbounds [10 x [3 x i32]], [10 x [3 x i32]]* %3, i64 0, i64 %179
  %181 = getelementptr inbounds [3 x i32], [3 x i32]* %180, i64 0, i64 1
  %182 = load i32, i32* %181, align 4
  %183 = load i32, i32* %6, align 4
  %184 = sext i32 %183 to i64
  %185 = getelementptr inbounds [50 x %struct.distant], [50 x %struct.distant]* %4, i64 0, i64 %184
  %186 = getelementptr inbounds %struct.distant, %struct.distant* %185, i32 0, i32 1
  %187 = load i32, i32* %186, align 4
  %188 = sext i32 %187 to i64
  %189 = getelementptr inbounds [10 x [3 x i32]], [10 x [3 x i32]]* %3, i64 0, i64 %188
  %190 = getelementptr inbounds [3 x i32], [3 x i32]* %189, i64 0, i64 2
  %191 = load i32, i32* %190, align 4
  %192 = load i32, i32* %6, align 4
  %193 = sext i32 %192 to i64
  %194 = getelementptr inbounds [50 x %struct.distant], [50 x %struct.distant]* %4, i64 0, i64 %193
  %195 = getelementptr inbounds %struct.distant, %struct.distant* %194, i32 0, i32 2
  %196 = load float, float* %195, align 4
  %197 = fpext float %196 to double
  %198 = call i32 (i8*, ...) @printf(i8* getelementptr inbounds ([28 x i8], [28 x i8]* @.str.1, i64 0, i64 0), i32 %146, i32 %155, i32 %164, i32 %173, i32 %182, i32 %191, double %197)
  br label %199

199:                                              ; preds = %137
  %200 = load i32, i32* %6, align 4
  %201 = add nsw i32 %200, 1
  store i32 %201, i32* %6, align 4
  br label %133

202:                                              ; preds = %133
  %203 = load i32, i32* %1, align 4
  ret i32 %203
}